target datalayout = "e-m:e-p270:32:32-p271:32:32-p272:64:64-i64:64-i128:128-f80:128-n8:16:32:64-S128"
target triple = "x86_64-unknown-linux-gnu"

; Function Attrs: nounwind sspstrong uwtable
define dso_local i32 @scsi_cdb_length(ptr noundef %buf) #0 {
entry:
  %buf.addr = alloca ptr, align 8
  %cdb_len = alloca i32, align 4
  store ptr %buf, ptr %buf.addr, align 8
  %0 = load ptr, ptr %buf.addr, align 8
  %arrayidx = getelementptr i8, ptr %0, i64 0
  %1 = load i8, ptr %arrayidx, align 1
  %conv = zext i8 %1 to i32
  %shr = ashr i32 %conv, 5
  switch i32 %shr, label %sw.default [
    i32 0, label %sw.bb
    i32 1, label %sw.bb1
    i32 2, label %sw.bb1
    i32 4, label %sw.bb2
    i32 5, label %sw.bb3
  ]

sw.bb:                                            ; preds = %entry
  store i32 6, ptr %cdb_len, align 4
  br label %sw.epilog

sw.bb1:                                           ; preds = %entry, %entry
  store i32 10, ptr %cdb_len, align 4
  br label %sw.epilog

sw.bb2:                                           ; preds = %entry
  store i32 16, ptr %cdb_len, align 4
  br label %sw.epilog

sw.bb3:                                           ; preds = %entry
  store i32 12, ptr %cdb_len, align 4
  br label %sw.epilog

sw.default:                                       ; preds = %entry
  store i32 -1, ptr %cdb_len, align 4
  br label %sw.epilog

sw.epilog:                                        ; preds = %sw.default, %sw.bb3, %sw.bb2, %sw.bb1, %sw.bb
  %2 = load i32, ptr %cdb_len, align 4
  ret i32 %2
}