; Function Attrs: mustprogress nofree norecurse nosync nounwind sspstrong willreturn memory(argmem: read) uwtable
define dso_local range(i32 -1, 17) i32 @scsi_cdb_length(ptr noundef readonly captures(none) %buf) local_unnamed_addr #0 {
entry:
  %0 = load i8, ptr %buf, align 1
  %1 = icmp ult i8 %0, -64
  br i1 %1, label %switch.lookup, label %sw.epilog

switch.lookup:                                    ; preds = %entry
  %2 = lshr i8 %0, 5
  %3 = zext nneg i8 %2 to i64
  %switch.gep = getelementptr inbounds nuw [6 x i32], ptr @switch.table.scsi_cdb_length, i64 0, i64 %3
  %switch.load = load i32, ptr %switch.gep, align 4
  br label %sw.epilog

sw.epilog:                                        ; preds = %entry, %switch.lookup
  %cdb_len.0 = phi i32 [ %switch.load, %switch.lookup ], [ -1, %entry ]
  ret i32 %cdb_len.0
}